target datalayout = "e-m:e-p270:32:32-p271:32:32-p272:64:64-i64:64-i128:128-f80:128-n8:16:32:64-S128"
target triple = "x86_64-pc-linux-gnu"

%"struct.clang::HeaderFileInfo" = type { i16, %"class.clang::LazyIdentifierInfoPtr", %"class.llvm::StringRef" }
%"class.clang::LazyIdentifierInfoPtr" = type { i64 }
%"class.llvm::StringRef" = type { ptr, i64 }
%"class.clang::FileEntryRef" = type { ptr }

; Function Attrs: mustprogress nounwind uwtable
define linkonce_odr hidden noundef zeroext i1 @_ZNK5clang21LazyIdentifierInfoPtr7isValidEv(ptr noundef nonnull align 8 dereferenceable(8) %0) #0 comdat align 2 {
  %2 = alloca ptr, align 8
  store ptr %0, ptr %2, align 8
  %3 = load ptr, ptr %2, align 8
  %4 = getelementptr inbounds nuw %"class.clang::LazyIdentifierInfoPtr", ptr %3, i32 0, i32 0
  %5 = load i64, ptr %4, align 8
  %6 = icmp ne i64 %5, 0
  ret i1 %6
}

; Function Attrs: mustprogress nounwind uwtable
define dso_local noundef zeroext i1 @_ZNK5clang12HeaderSearch28isFileMultipleIncludeGuardedENS_12FileEntryRefE(ptr noundef nonnull align 8 dereferenceable(2192) %0, ptr %1) #0 align 2 {
  %3 = alloca i1, align 1
  %4 = alloca %"class.clang::FileEntryRef", align 8
  %5 = alloca ptr, align 8
  %6 = alloca ptr, align 8
  %7 = alloca %"class.clang::FileEntryRef", align 8
  %8 = getelementptr inbounds nuw %"class.clang::FileEntryRef", ptr %4, i32 0, i32 0
  store ptr %1, ptr %8, align 8
  store ptr %0, ptr %5, align 8
  %9 = load ptr, ptr %5, align 8
  call void @llvm.memcpy.p0.p0.i64(ptr align 8 %7, ptr align 8 %4, i64 8, i1 false)
  %10 = getelementptr inbounds nuw %"class.clang::FileEntryRef", ptr %7, i32 0, i32 0
  %11 = load ptr, ptr %10, align 8
  %12 = call noundef ptr @_ZNK5clang12HeaderSearch19getExistingFileInfoENS_12FileEntryRefE(ptr noundef nonnull align 8 dereferenceable(2192) %9, ptr %11)
  store ptr %12, ptr %6, align 8
  %13 = load ptr, ptr %6, align 8
  %14 = icmp ne ptr %13, null
  br i1 %14, label %15, label %28

15:                                               ; preds = %2
  %16 = load ptr, ptr %6, align 8
  %17 = load i16, ptr %16, align 8
  %18 = lshr i16 %17, 2
  %19 = and i16 %18, 1
  %20 = zext i16 %19 to i32
  %21 = icmp ne i32 %20, 0
  br i1 %21, label %26, label %22

22:                                               ; preds = %15
  %23 = load ptr, ptr %6, align 8
  %24 = getelementptr inbounds nuw %"struct.clang::HeaderFileInfo", ptr %23, i32 0, i32 1
  %25 = call noundef zeroext i1 @_ZNK5clang21LazyIdentifierInfoPtr7isValidEv(ptr noundef nonnull align 8 dereferenceable(8) %24)
  br label %26

26:                                               ; preds = %22, %15
  %27 = phi i1 [ true, %15 ], [ %25, %22 ]
  store i1 %27, ptr %3, align 1
  br label %29

28:                                               ; preds = %2
  store i1 false, ptr %3, align 1
  br label %29

29:                                               ; preds = %28, %26
  %30 = load i1, ptr %3, align 1
  ret i1 %30
}