; Function Attrs: mustprogress nounwind uwtable
define dso_local noundef zeroext i1 @_ZNK5clang12HeaderSearch28isFileMultipleIncludeGuardedENS_12FileEntryRefE(ptr noundef nonnull align 8 dereferenceable(2192) %0, ptr %1) local_unnamed_addr #0 align 2 {
  %3 = tail call noundef ptr @_ZNK5clang12HeaderSearch19getExistingFileInfoENS_12FileEntryRefE(ptr noundef nonnull align 8 dereferenceable(2192) %0, ptr %1)
  %.not = icmp eq ptr %3, null
  br i1 %.not, label %11, label %4

4:                                                ; preds = %2
  %5 = load i16, ptr %3, align 8
  %6 = and i16 %5, 4
  %.not7 = icmp eq i16 %6, 0
  br i1 %.not7, label %7, label %11

7:                                                ; preds = %4
  %8 = getelementptr inbounds nuw i8, ptr %3, i64 8
  %9 = load i64, ptr %8, align 8
  %10 = icmp ne i64 %9, 0
  br label %11

11:                                               ; preds = %2, %4, %7
  %.0 = phi i1 [ true, %4 ], [ %10, %7 ], [ false, %2 ]
  ret i1 %.0
}